target datalayout = "e-m:e-p270:32:32-p271:32:32-p272:64:64-i64:64-i128:128-f80:128-n8:16:32:64-S128"
target triple = "x86_64-pc-linux-gnu"

%struct._dcerpc_uuid_value = type { ptr, i32, i32, ptr, ptr, i32 }
%struct.dcerpc_decode_as_populate = type { ptr, ptr }

@.str.628 = private unnamed_addr constant [7 x i8] c"(none)\00", align 1
@.str.629 = private unnamed_addr constant [8 x i8] c"DCE-RPC\00", align 1

; Function Attrs: null_pointer_is_valid sspstrong uwtable
define internal void @decode_dcerpc_add_to_list(ptr noundef %0, ptr noundef %1, ptr noundef %2) #0 {
  %4 = alloca ptr, align 8
  %5 = alloca ptr, align 8
  %6 = alloca ptr, align 8
  %7 = alloca ptr, align 8
  %8 = alloca ptr, align 8
  store ptr %0, ptr %4, align 8
  store ptr %1, ptr %5, align 8
  store ptr %2, ptr %6, align 8
  call void @llvm.lifetime.start.p0(i64 8, ptr %7) #19
  %9 = load ptr, ptr %6, align 8
  store ptr %9, ptr %7, align 8
  call void @llvm.lifetime.start.p0(i64 8, ptr %8) #19
  %10 = load ptr, ptr %5, align 8
  store ptr %10, ptr %8, align 8
  %11 = load ptr, ptr %8, align 8
  %12 = getelementptr inbounds nuw %struct._dcerpc_uuid_value, ptr %11, i32 0, i32 3
  %13 = load ptr, ptr %12, align 8
  %14 = call i32 @strcmp(ptr noundef %13, ptr noundef @.str.628) #25
  %15 = icmp ne i32 %14, 0
  br i1 %15, label %16, label %27

16:                                               ; preds = %3
  %17 = load ptr, ptr %7, align 8
  %18 = getelementptr inbounds nuw %struct.dcerpc_decode_as_populate, ptr %17, i32 0, i32 0
  %19 = load ptr, ptr %18, align 8
  %20 = load ptr, ptr %8, align 8
  %21 = getelementptr inbounds nuw %struct._dcerpc_uuid_value, ptr %20, i32 0, i32 3
  %22 = load ptr, ptr %21, align 8
  %23 = load ptr, ptr %4, align 8
  %24 = load ptr, ptr %7, align 8
  %25 = getelementptr inbounds nuw %struct.dcerpc_decode_as_populate, ptr %24, i32 0, i32 1
  %26 = load ptr, ptr %25, align 8
  call void %19(ptr noundef @.str.629, ptr noundef %22, ptr noundef %23, ptr noundef %26)
  br label %27

27:                                               ; preds = %16, %3
  call void @llvm.lifetime.end.p0(i64 8, ptr %8) #19
  call void @llvm.lifetime.end.p0(i64 8, ptr %7) #19
  ret void
}