; Function Attrs: null_pointer_is_valid sspstrong uwtable
define internal void @decode_dcerpc_add_to_list(ptr noundef %0, ptr noundef readonly captures(none) %1, ptr noundef readonly captures(none) %2) #0 {
  %4 = getelementptr inbounds nuw i8, ptr %1, i64 16
  %5 = load ptr, ptr %4, align 8
  %6 = tail call i32 @strcmp(ptr noundef %5, ptr noundef nonnull dereferenceable(7) @.str.628) #22
  %.not = icmp eq i32 %6, 0
  br i1 %.not, label %11, label %7

7:                                                ; preds = %3
  %8 = load ptr, ptr %2, align 8
  %9 = getelementptr inbounds nuw i8, ptr %2, i64 8
  %10 = load ptr, ptr %9, align 8
  tail call void %8(ptr noundef nonnull @.str.629, ptr noundef %5, ptr noundef %0, ptr noundef %10)
  br label %11

11:                                               ; preds = %7, %3
  ret void
}